target datalayout = "e-m:e-p270:32:32-p271:32:32-p272:64:64-i64:64-i128:128-f80:128-n8:16:32:64-S128"
target triple = "x86_64-unknown-linux-gnu"

%class.btVector3 = type { [4 x float] }
%class.btConeShape = type { %class.btConvexInternalShape, float, float, float, [3 x i32] }
%class.btConvexInternalShape = type { %class.btConvexShape, %class.btVector3, %class.btVector3, float, float }
%class.btConvexShape = type { %class.btCollisionShape }
%class.btCollisionShape = type { ptr, i32, ptr, i32, i32 }

; Function Attrs: mustprogress nounwind uwtable
define linkonce_odr dso_local noundef float @_ZNK9btVector33dotERKS_(ptr noundef nonnull align 4 dereferenceable(16) %this, ptr noundef nonnull align 4 dereferenceable(16) %v) #1 comdat align 2 {
entry:
  %this.addr = alloca ptr, align 8
  %v.addr = alloca ptr, align 8
  store ptr %this, ptr %this.addr, align 8
  store ptr %v, ptr %v.addr, align 8
  %this1 = load ptr, ptr %this.addr, align 8
  %m_floats = getelementptr inbounds %class.btVector3, ptr %this1, i32 0, i32 0
  %arrayidx = getelementptr inbounds [4 x float], ptr %m_floats, i64 0, i64 0
  %0 = load float, ptr %arrayidx, align 4
  %1 = load ptr, ptr %v.addr, align 8
  %m_floats2 = getelementptr inbounds %class.btVector3, ptr %1, i32 0, i32 0
  %arrayidx3 = getelementptr inbounds [4 x float], ptr %m_floats2, i64 0, i64 0
  %2 = load float, ptr %arrayidx3, align 4
  %m_floats4 = getelementptr inbounds %class.btVector3, ptr %this1, i32 0, i32 0
  %arrayidx5 = getelementptr inbounds [4 x float], ptr %m_floats4, i64 0, i64 1
  %3 = load float, ptr %arrayidx5, align 4
  %4 = load ptr, ptr %v.addr, align 8
  %m_floats6 = getelementptr inbounds %class.btVector3, ptr %4, i32 0, i32 0
  %arrayidx7 = getelementptr inbounds [4 x float], ptr %m_floats6, i64 0, i64 1
  %5 = load float, ptr %arrayidx7, align 4
  %mul8 = fmul float %3, %5
  %6 = call float @llvm.fmuladd.f32(float %0, float %2, float %mul8)
  %m_floats9 = getelementptr inbounds %class.btVector3, ptr %this1, i32 0, i32 0
  %arrayidx10 = getelementptr inbounds [4 x float], ptr %m_floats9, i64 0, i64 2
  %7 = load float, ptr %arrayidx10, align 4
  %8 = load ptr, ptr %v.addr, align 8
  %m_floats11 = getelementptr inbounds %class.btVector3, ptr %8, i32 0, i32 0
  %arrayidx12 = getelementptr inbounds [4 x float], ptr %m_floats11, i64 0, i64 2
  %9 = load float, ptr %arrayidx12, align 4
  %10 = call float @llvm.fmuladd.f32(float %7, float %9, float %6)
  ret float %10
}

; Function Attrs: mustprogress uwtable
define linkonce_odr dso_local noundef float @_ZNK9btVector37length2Ev(ptr noundef nonnull align 4 dereferenceable(16) %this) #2 comdat align 2 {
entry:
  %this.addr = alloca ptr, align 8
  store ptr %this, ptr %this.addr, align 8
  %this1 = load ptr, ptr %this.addr, align 8
  %call = call noundef float @_ZNK9btVector33dotERKS_(ptr noundef nonnull align 4 dereferenceable(16) %this1, ptr noundef nonnull align 4 dereferenceable(16) %this1)
  ret float %call
}

; Function Attrs: mustprogress nounwind uwtable
define linkonce_odr dso_local noundef float @_Z6btSqrtf(float noundef %y) #1 comdat {
entry:
  %y.addr = alloca float, align 4
  store float %y, ptr %y.addr, align 4
  %0 = load float, ptr %y.addr, align 4
  %call = call float @sqrtf(float noundef %0) #9
  ret float %call
}

; Function Attrs: mustprogress nounwind uwtable
define linkonce_odr dso_local noundef ptr @_ZN9btVector3cvPfEv(ptr noundef nonnull align 4 dereferenceable(16) %this) #1 comdat align 2 {
entry:
  %this.addr = alloca ptr, align 8
  store ptr %this, ptr %this.addr, align 8
  %this1 = load ptr, ptr %this.addr, align 8
  %m_floats = getelementptr inbounds %class.btVector3, ptr %this1, i32 0, i32 0
  %arrayidx = getelementptr inbounds [4 x float], ptr %m_floats, i64 0, i64 0
  ret ptr %arrayidx
}

; Function Attrs: mustprogress nounwind uwtable
define linkonce_odr dso_local void @_ZN9btVector3C2Ev(ptr noundef nonnull align 4 dereferenceable(16) %this) unnamed_addr #1 comdat align 2 {
entry:
  %this.addr = alloca ptr, align 8
  store ptr %this, ptr %this.addr, align 8
  ret void
}

; Function Attrs: mustprogress uwtable
define linkonce_odr dso_local noundef float @_ZNK9btVector36lengthEv(ptr noundef nonnull align 4 dereferenceable(16) %this) #2 comdat align 2 {
entry:
  %this.addr = alloca ptr, align 8
  store ptr %this, ptr %this.addr, align 8
  %this1 = load ptr, ptr %this.addr, align 8
  %call = call noundef float @_ZNK9btVector37length2Ev(ptr noundef nonnull align 4 dereferenceable(16) %this1)
  %call2 = call noundef float @_Z6btSqrtf(float noundef %call)
  ret float %call2
}

; Function Attrs: mustprogress nounwind uwtable
define linkonce_odr dso_local noundef ptr @_ZNK9btVector3cvPKfEv(ptr noundef nonnull align 4 dereferenceable(16) %this) #1 comdat align 2 {
entry:
  %this.addr = alloca ptr, align 8
  store ptr %this, ptr %this.addr, align 8
  %this1 = load ptr, ptr %this.addr, align 8
  %m_floats = getelementptr inbounds %class.btVector3, ptr %this1, i32 0, i32 0
  %arrayidx = getelementptr inbounds [4 x float], ptr %m_floats, i64 0, i64 0
  ret ptr %arrayidx
}

; Function Attrs: mustprogress uwtable
define dso_local { <2 x float>, <2 x float> } @_ZNK11btConeShape16coneLocalSupportERK9btVector3(ptr noundef nonnull align 8 dereferenceable(96) %this, ptr noundef nonnull align 4 dereferenceable(16) %v) #2 align 2 {
entry:
  %retval = alloca %class.btVector3, align 4
  %this.addr = alloca ptr, align 8
  %v.addr = alloca ptr, align 8
  %halfHeight = alloca float, align 4
  %s = alloca float, align 4
  %d = alloca float, align 4
  store ptr %this, ptr %this.addr, align 8
  store ptr %v, ptr %v.addr, align 8
  %this1 = load ptr, ptr %this.addr, align 8
  %m_height = getelementptr inbounds %class.btConeShape, ptr %this1, i32 0, i32 3
  %0 = load float, ptr %m_height, align 8
  %mul = fmul float %0, 5.000000e-01
  store float %mul, ptr %halfHeight, align 4
  %1 = load ptr, ptr %v.addr, align 8
  %call = call noundef ptr @_ZNK9btVector3cvPKfEv(ptr noundef nonnull align 4 dereferenceable(16) %1)
  %m_coneIndices = getelementptr inbounds %class.btConeShape, ptr %this1, i32 0, i32 4
  %arrayidx = getelementptr inbounds [3 x i32], ptr %m_coneIndices, i64 0, i64 1
  %2 = load i32, ptr %arrayidx, align 4
  %idxprom = sext i32 %2 to i64
  %arrayidx2 = getelementptr inbounds float, ptr %call, i64 %idxprom
  %3 = load float, ptr %arrayidx2, align 4
  %4 = load ptr, ptr %v.addr, align 8
  %call3 = call noundef float @_ZNK9btVector36lengthEv(ptr noundef nonnull align 4 dereferenceable(16) %4)
  %m_sinAngle = getelementptr inbounds %class.btConeShape, ptr %this1, i32 0, i32 1
  %5 = load float, ptr %m_sinAngle, align 8
  %mul4 = fmul float %call3, %5
  %cmp = fcmp ogt float %3, %mul4
  br i1 %cmp, label %if.then, label %if.else

if.then:                                          ; preds = %entry
  call void @_ZN9btVector3C2Ev(ptr noundef nonnull align 4 dereferenceable(16) %retval)
  %call5 = call noundef ptr @_ZN9btVector3cvPfEv(ptr noundef nonnull align 4 dereferenceable(16) %retval)
  %m_coneIndices6 = getelementptr inbounds %class.btConeShape, ptr %this1, i32 0, i32 4
  %arrayidx7 = getelementptr inbounds [3 x i32], ptr %m_coneIndices6, i64 0, i64 0
  %6 = load i32, ptr %arrayidx7, align 4
  %idxprom8 = sext i32 %6 to i64
  %arrayidx9 = getelementptr inbounds float, ptr %call5, i64 %idxprom8
  store float 0.000000e+00, ptr %arrayidx9, align 4
  %7 = load float, ptr %halfHeight, align 4
  %call10 = call noundef ptr @_ZN9btVector3cvPfEv(ptr noundef nonnull align 4 dereferenceable(16) %retval)
  %m_coneIndices11 = getelementptr inbounds %class.btConeShape, ptr %this1, i32 0, i32 4
  %arrayidx12 = getelementptr inbounds [3 x i32], ptr %m_coneIndices11, i64 0, i64 1
  %8 = load i32, ptr %arrayidx12, align 4
  %idxprom13 = sext i32 %8 to i64
  %arrayidx14 = getelementptr inbounds float, ptr %call10, i64 %idxprom13
  store float %7, ptr %arrayidx14, align 4
  %call15 = call noundef ptr @_ZN9btVector3cvPfEv(ptr noundef nonnull align 4 dereferenceable(16) %retval)
  %m_coneIndices16 = getelementptr inbounds %class.btConeShape, ptr %this1, i32 0, i32 4
  %arrayidx17 = getelementptr inbounds [3 x i32], ptr %m_coneIndices16, i64 0, i64 2
  %9 = load i32, ptr %arrayidx17, align 4
  %idxprom18 = sext i32 %9 to i64
  %arrayidx19 = getelementptr inbounds float, ptr %call15, i64 %idxprom18
  store float 0.000000e+00, ptr %arrayidx19, align 4
  br label %return

if.else:                                          ; preds = %entry
  %10 = load ptr, ptr %v.addr, align 8
  %call20 = call noundef ptr @_ZNK9btVector3cvPKfEv(ptr noundef nonnull align 4 dereferenceable(16) %10)
  %m_coneIndices21 = getelementptr inbounds %class.btConeShape, ptr %this1, i32 0, i32 4
  %arrayidx22 = getelementptr inbounds [3 x i32], ptr %m_coneIndices21, i64 0, i64 0
  %11 = load i32, ptr %arrayidx22, align 4
  %idxprom23 = sext i32 %11 to i64
  %arrayidx24 = getelementptr inbounds float, ptr %call20, i64 %idxprom23
  %12 = load float, ptr %arrayidx24, align 4
  %13 = load ptr, ptr %v.addr, align 8
  %call25 = call noundef ptr @_ZNK9btVector3cvPKfEv(ptr noundef nonnull align 4 dereferenceable(16) %13)
  %m_coneIndices26 = getelementptr inbounds %class.btConeShape, ptr %this1, i32 0, i32 4
  %arrayidx27 = getelementptr inbounds [3 x i32], ptr %m_coneIndices26, i64 0, i64 0
  %14 = load i32, ptr %arrayidx27, align 4
  %idxprom28 = sext i32 %14 to i64
  %arrayidx29 = getelementptr inbounds float, ptr %call25, i64 %idxprom28
  %15 = load float, ptr %arrayidx29, align 4
  %16 = load ptr, ptr %v.addr, align 8
  %call31 = call noundef ptr @_ZNK9btVector3cvPKfEv(ptr noundef nonnull align 4 dereferenceable(16) %16)
  %m_coneIndices32 = getelementptr inbounds %class.btConeShape, ptr %this1, i32 0, i32 4
  %arrayidx33 = getelementptr inbounds [3 x i32], ptr %m_coneIndices32, i64 0, i64 2
  %17 = load i32, ptr %arrayidx33, align 4
  %idxprom34 = sext i32 %17 to i64
  %arrayidx35 = getelementptr inbounds float, ptr %call31, i64 %idxprom34
  %18 = load float, ptr %arrayidx35, align 4
  %19 = load ptr, ptr %v.addr, align 8
  %call36 = call noundef ptr @_ZNK9btVector3cvPKfEv(ptr noundef nonnull align 4 dereferenceable(16) %19)
  %m_coneIndices37 = getelementptr inbounds %class.btConeShape, ptr %this1, i32 0, i32 4
  %arrayidx38 = getelementptr inbounds [3 x i32], ptr %m_coneIndices37, i64 0, i64 2
  %20 = load i32, ptr %arrayidx38, align 4
  %idxprom39 = sext i32 %20 to i64
  %arrayidx40 = getelementptr inbounds float, ptr %call36, i64 %idxprom39
  %21 = load float, ptr %arrayidx40, align 4
  %mul41 = fmul float %18, %21
  %22 = call float @llvm.fmuladd.f32(float %12, float %15, float %mul41)
  %call42 = call noundef float @_Z6btSqrtf(float noundef %22)
  store float %call42, ptr %s, align 4
  %23 = load float, ptr %s, align 4
  %cmp43 = fcmp ogt float %23, 0x3E80000000000000
  br i1 %cmp43, label %if.then44, label %if.else72

if.then44:                                        ; preds = %if.else
  %m_radius = getelementptr inbounds %class.btConeShape, ptr %this1, i32 0, i32 2
  %24 = load float, ptr %m_radius, align 4
  %25 = load float, ptr %s, align 4
  %div = fdiv float %24, %25
  store float %div, ptr %d, align 4
  call void @_ZN9btVector3C2Ev(ptr noundef nonnull align 4 dereferenceable(16) %retval)
  %26 = load ptr, ptr %v.addr, align 8
  %call45 = call noundef ptr @_ZNK9btVector3cvPKfEv(ptr noundef nonnull align 4 dereferenceable(16) %26)
  %m_coneIndices46 = getelementptr inbounds %class.btConeShape, ptr %this1, i32 0, i32 4
  %arrayidx47 = getelementptr inbounds [3 x i32], ptr %m_coneIndices46, i64 0, i64 0
  %27 = load i32, ptr %arrayidx47, align 4
  %idxprom48 = sext i32 %27 to i64
  %arrayidx49 = getelementptr inbounds float, ptr %call45, i64 %idxprom48
  %28 = load float, ptr %arrayidx49, align 4
  %29 = load float, ptr %d, align 4
  %mul50 = fmul float %28, %29
  %call51 = call noundef ptr @_ZN9btVector3cvPfEv(ptr noundef nonnull align 4 dereferenceable(16) %retval)
  %m_coneIndices52 = getelementptr inbounds %class.btConeShape, ptr %this1, i32 0, i32 4
  %arrayidx53 = getelementptr inbounds [3 x i32], ptr %m_coneIndices52, i64 0, i64 0
  %30 = load i32, ptr %arrayidx53, align 4
  %idxprom54 = sext i32 %30 to i64
  %arrayidx55 = getelementptr inbounds float, ptr %call51, i64 %idxprom54
  store float %mul50, ptr %arrayidx55, align 4
  %31 = load float, ptr %halfHeight, align 4
  %fneg = fneg float %31
  %call56 = call noundef ptr @_ZN9btVector3cvPfEv(ptr noundef nonnull align 4 dereferenceable(16) %retval)
  %m_coneIndices57 = getelementptr inbounds %class.btConeShape, ptr %this1, i32 0, i32 4
  %arrayidx58 = getelementptr inbounds [3 x i32], ptr %m_coneIndices57, i64 0, i64 1
  %32 = load i32, ptr %arrayidx58, align 4
  %idxprom59 = sext i32 %32 to i64
  %arrayidx60 = getelementptr inbounds float, ptr %call56, i64 %idxprom59
  store float %fneg, ptr %arrayidx60, align 4
  %33 = load ptr, ptr %v.addr, align 8
  %call61 = call noundef ptr @_ZNK9btVector3cvPKfEv(ptr noundef nonnull align 4 dereferenceable(16) %33)
  %m_coneIndices62 = getelementptr inbounds %class.btConeShape, ptr %this1, i32 0, i32 4
  %arrayidx63 = getelementptr inbounds [3 x i32], ptr %m_coneIndices62, i64 0, i64 2
  %34 = load i32, ptr %arrayidx63, align 4
  %idxprom64 = sext i32 %34 to i64
  %arrayidx65 = getelementptr inbounds float, ptr %call61, i64 %idxprom64
  %35 = load float, ptr %arrayidx65, align 4
  %36 = load float, ptr %d, align 4
  %mul66 = fmul float %35, %36
  %call67 = call noundef ptr @_ZN9btVector3cvPfEv(ptr noundef nonnull align 4 dereferenceable(16) %retval)
  %m_coneIndices68 = getelementptr inbounds %class.btConeShape, ptr %this1, i32 0, i32 4
  %arrayidx69 = getelementptr inbounds [3 x i32], ptr %m_coneIndices68, i64 0, i64 2
  %37 = load i32, ptr %arrayidx69, align 4
  %idxprom70 = sext i32 %37 to i64
  %arrayidx71 = getelementptr inbounds float, ptr %call67, i64 %idxprom70
  store float %mul66, ptr %arrayidx71, align 4
  br label %return

if.else72:                                        ; preds = %if.else
  call void @_ZN9btVector3C2Ev(ptr noundef nonnull align 4 dereferenceable(16) %retval)
  %call73 = call noundef ptr @_ZN9btVector3cvPfEv(ptr noundef nonnull align 4 dereferenceable(16) %retval)
  %m_coneIndices74 = getelementptr inbounds %class.btConeShape, ptr %this1, i32 0, i32 4
  %arrayidx75 = getelementptr inbounds [3 x i32], ptr %m_coneIndices74, i64 0, i64 0
  %38 = load i32, ptr %arrayidx75, align 4
  %idxprom76 = sext i32 %38 to i64
  %arrayidx77 = getelementptr inbounds float, ptr %call73, i64 %idxprom76
  store float 0.000000e+00, ptr %arrayidx77, align 4
  %39 = load float, ptr %halfHeight, align 4
  %fneg78 = fneg float %39
  %call79 = call noundef ptr @_ZN9btVector3cvPfEv(ptr noundef nonnull align 4 dereferenceable(16) %retval)
  %m_coneIndices80 = getelementptr inbounds %class.btConeShape, ptr %this1, i32 0, i32 4
  %arrayidx81 = getelementptr inbounds [3 x i32], ptr %m_coneIndices80, i64 0, i64 1
  %40 = load i32, ptr %arrayidx81, align 4
  %idxprom82 = sext i32 %40 to i64
  %arrayidx83 = getelementptr inbounds float, ptr %call79, i64 %idxprom82
  store float %fneg78, ptr %arrayidx83, align 4
  %call84 = call noundef ptr @_ZN9btVector3cvPfEv(ptr noundef nonnull align 4 dereferenceable(16) %retval)
  %m_coneIndices85 = getelementptr inbounds %class.btConeShape, ptr %this1, i32 0, i32 4
  %arrayidx86 = getelementptr inbounds [3 x i32], ptr %m_coneIndices85, i64 0, i64 2
  %41 = load i32, ptr %arrayidx86, align 4
  %idxprom87 = sext i32 %41 to i64
  %arrayidx88 = getelementptr inbounds float, ptr %call84, i64 %idxprom87
  store float 0.000000e+00, ptr %arrayidx88, align 4
  br label %return

return:                                           ; preds = %if.else72, %if.then44, %if.then
  %coerce.dive = getelementptr inbounds %class.btVector3, ptr %retval, i32 0, i32 0
  %42 = load { <2 x float>, <2 x float> }, ptr %coerce.dive, align 4
  ret { <2 x float>, <2 x float> } %42
}

; Function Attrs: mustprogress uwtable
define dso_local void @_ZNK11btConeShape49batchedUnitVectorGetSupportingVertexWithoutMarginEPK9btVector3PS0_i(ptr noundef nonnull align 8 dereferenceable(96) %this, ptr noundef %vectors, ptr noundef %supportVerticesOut, i32 noundef %numVectors) unnamed_addr #5 align 2 {
entry:
  %this.addr = alloca ptr, align 8
  %vectors.addr = alloca ptr, align 8
  %supportVerticesOut.addr = alloca ptr, align 8
  %numVectors.addr = alloca i32, align 4
  %i = alloca i32, align 4
  %vec = alloca ptr, align 8
  %ref.tmp = alloca %class.btVector3, align 4
  store ptr %this, ptr %this.addr, align 8
  store ptr %vectors, ptr %vectors.addr, align 8
  store ptr %supportVerticesOut, ptr %supportVerticesOut.addr, align 8
  store i32 %numVectors, ptr %numVectors.addr, align 4
  %this1 = load ptr, ptr %this.addr, align 8
  store i32 0, ptr %i, align 4
  br label %for.cond

for.cond:                                         ; preds = %for.inc, %entry
  %0 = load i32, ptr %i, align 4
  %1 = load i32, ptr %numVectors.addr, align 4
  %cmp = icmp slt i32 %0, %1
  br i1 %cmp, label %for.body, label %for.end

for.body:                                         ; preds = %for.cond
  %2 = load ptr, ptr %vectors.addr, align 8
  %3 = load i32, ptr %i, align 4
  %idxprom = sext i32 %3 to i64
  %arrayidx = getelementptr inbounds %class.btVector3, ptr %2, i64 %idxprom
  store ptr %arrayidx, ptr %vec, align 8
  %4 = load ptr, ptr %vec, align 8
  %call = call { <2 x float>, <2 x float> } @_ZNK11btConeShape16coneLocalSupportERK9btVector3(ptr noundef nonnull align 8 dereferenceable(96) %this1, ptr noundef nonnull align 4 dereferenceable(16) %4)
  %coerce.dive = getelementptr inbounds %class.btVector3, ptr %ref.tmp, i32 0, i32 0
  %5 = getelementptr inbounds { <2 x float>, <2 x float> }, ptr %coerce.dive, i32 0, i32 0
  %6 = extractvalue { <2 x float>, <2 x float> } %call, 0
  store <2 x float> %6, ptr %5, align 4
  %7 = getelementptr inbounds { <2 x float>, <2 x float> }, ptr %coerce.dive, i32 0, i32 1
  %8 = extractvalue { <2 x float>, <2 x float> } %call, 1
  store <2 x float> %8, ptr %7, align 4
  %9 = load ptr, ptr %supportVerticesOut.addr, align 8
  %10 = load i32, ptr %i, align 4
  %idxprom2 = sext i32 %10 to i64
  %arrayidx3 = getelementptr inbounds %class.btVector3, ptr %9, i64 %idxprom2
  call void @llvm.memcpy.p0.p0.i64(ptr align 4 %arrayidx3, ptr align 4 %ref.tmp, i64 16, i1 false)
  br label %for.inc

for.inc:                                          ; preds = %for.body
  %11 = load i32, ptr %i, align 4
  %inc = add nsw i32 %11, 1
  store i32 %inc, ptr %i, align 4
  br label %for.cond, !llvm.loop !5

for.end:                                          ; preds = %for.cond
  ret void
}