; Function Attrs: mustprogress nofree norecurse nosync nounwind memory(argmem: readwrite) uwtable
define dso_local void @_ZNK11btConeShape49batchedUnitVectorGetSupportingVertexWithoutMarginEPK9btVector3PS0_i(ptr nocapture noundef nonnull readonly align 8 dereferenceable(96) %this, ptr nocapture noundef readonly %vectors, ptr nocapture noundef writeonly %supportVerticesOut, i32 noundef %numVectors) unnamed_addr #6 align 2 {
entry:
  %retval.i = alloca %class.btVector3, align 8
  %cmp4 = icmp sgt i32 %numVectors, 0
  br i1 %cmp4, label %for.body.lr.ph, label %for.end

for.body.lr.ph:                                   ; preds = %entry
  %m_height.i = getelementptr inbounds i8, ptr %this, i64 80
  %m_coneIndices.i = getelementptr inbounds i8, ptr %this, i64 84
  %arrayidx.i = getelementptr inbounds i8, ptr %this, i64 88
  %m_sinAngle.i = getelementptr inbounds i8, ptr %this, i64 72
  %arrayidx33.i = getelementptr inbounds i8, ptr %this, i64 92
  %m_radius.i = getelementptr inbounds i8, ptr %this, i64 76
  %.fca.1.gep.i = getelementptr inbounds i8, ptr %retval.i, i64 8
  %wide.trip.count = zext nneg i32 %numVectors to i64
  br label %for.body

for.body:                                         ; preds = %for.body.lr.ph, %_ZNK11btConeShape16coneLocalSupportERK9btVector3.exit
  %indvars.iv = phi i64 [ 0, %for.body.lr.ph ], [ %indvars.iv.next, %_ZNK11btConeShape16coneLocalSupportERK9btVector3.exit ]
  %arrayidx = getelementptr inbounds %class.btVector3, ptr %vectors, i64 %indvars.iv
  call void @llvm.lifetime.start.p0(i64 16, ptr nonnull %retval.i)
  %0 = load float, ptr %m_height.i, align 8
  %mul.i = fmul float %0, 5.000000e-01
  %1 = load i32, ptr %arrayidx.i, align 8
  %idxprom.i = sext i32 %1 to i64
  %arrayidx2.i = getelementptr inbounds float, ptr %arrayidx, i64 %idxprom.i
  %2 = load float, ptr %arrayidx2.i, align 4
  %3 = load float, ptr %arrayidx, align 4
  %arrayidx5.i.i.i.i = getelementptr inbounds i8, ptr %arrayidx, i64 4
  %4 = load float, ptr %arrayidx5.i.i.i.i, align 4
  %mul8.i.i.i.i = fmul float %4, %4
  %5 = tail call float @llvm.fmuladd.f32(float %3, float %3, float %mul8.i.i.i.i)
  %arrayidx10.i.i.i.i = getelementptr inbounds i8, ptr %arrayidx, i64 8
  %6 = load float, ptr %arrayidx10.i.i.i.i, align 4
  %7 = tail call noundef float @llvm.fmuladd.f32(float %6, float %6, float %5)
  %sqrt.i.i = tail call noundef float @llvm.sqrt.f32(float %7)
  %8 = load float, ptr %m_sinAngle.i, align 8
  %mul4.i = fmul float %8, %sqrt.i.i
  %cmp.i = fcmp ogt float %2, %mul4.i
  %9 = load i32, ptr %m_coneIndices.i, align 4
  %idxprom8.i = sext i32 %9 to i64
  br i1 %cmp.i, label %if.then.i, label %if.else.i

if.then.i:                                        ; preds = %for.body
  %arrayidx9.i = getelementptr inbounds float, ptr %retval.i, i64 %idxprom8.i
  store float 0.000000e+00, ptr %arrayidx9.i, align 4
  %arrayidx14.i = getelementptr inbounds float, ptr %retval.i, i64 %idxprom.i
  store float %mul.i, ptr %arrayidx14.i, align 4
  %10 = load i32, ptr %arrayidx33.i, align 4
  %idxprom18.i = sext i32 %10 to i64
  br label %_ZNK11btConeShape16coneLocalSupportERK9btVector3.exit

if.else.i:                                        ; preds = %for.body
  %arrayidx24.i = getelementptr inbounds float, ptr %arrayidx, i64 %idxprom8.i
  %11 = load float, ptr %arrayidx24.i, align 4
  %12 = load i32, ptr %arrayidx33.i, align 4
  %idxprom34.i = sext i32 %12 to i64
  %arrayidx35.i = getelementptr inbounds float, ptr %arrayidx, i64 %idxprom34.i
  %13 = load float, ptr %arrayidx35.i, align 4
  %mul41.i = fmul float %13, %13
  %14 = tail call float @llvm.fmuladd.f32(float %11, float %11, float %mul41.i)
  %sqrt.i = tail call float @llvm.sqrt.f32(float %14)
  %cmp43.i = fcmp ogt float %sqrt.i, 0x3E80000000000000
  br i1 %cmp43.i, label %if.then44.i, label %if.else72.i

if.then44.i:                                      ; preds = %if.else.i
  %15 = load float, ptr %m_radius.i, align 4
  %div.i = fdiv float %15, %sqrt.i
  %mul50.i = fmul float %11, %div.i
  %arrayidx55.i = getelementptr inbounds float, ptr %retval.i, i64 %idxprom8.i
  store float %mul50.i, ptr %arrayidx55.i, align 4
  %fneg.i = fneg float %mul.i
  %arrayidx60.i = getelementptr inbounds float, ptr %retval.i, i64 %idxprom.i
  store float %fneg.i, ptr %arrayidx60.i, align 4
  %mul66.i = fmul float %13, %div.i
  br label %_ZNK11btConeShape16coneLocalSupportERK9btVector3.exit

if.else72.i:                                      ; preds = %if.else.i
  %arrayidx77.i = getelementptr inbounds float, ptr %retval.i, i64 %idxprom8.i
  store float 0.000000e+00, ptr %arrayidx77.i, align 4
  %fneg78.i = fneg float %mul.i
  %arrayidx83.i = getelementptr inbounds float, ptr %retval.i, i64 %idxprom.i
  store float %fneg78.i, ptr %arrayidx83.i, align 4
  br label %_ZNK11btConeShape16coneLocalSupportERK9btVector3.exit

_ZNK11btConeShape16coneLocalSupportERK9btVector3.exit: ; preds = %if.then.i, %if.then44.i, %if.else72.i
  %idxprom34.sink.i = phi i64 [ %idxprom34.i, %if.else72.i ], [ %idxprom34.i, %if.then44.i ], [ %idxprom18.i, %if.then.i ]
  %.sink.i = phi float [ 0.000000e+00, %if.else72.i ], [ %mul66.i, %if.then44.i ], [ 0.000000e+00, %if.then.i ]
  %arrayidx88.i = getelementptr inbounds float, ptr %retval.i, i64 %idxprom34.sink.i
  store float %.sink.i, ptr %arrayidx88.i, align 4
  %.fca.0.load.i = load <2 x float>, ptr %retval.i, align 8
  %.fca.1.load.i = load <2 x float>, ptr %.fca.1.gep.i, align 8
  call void @llvm.lifetime.end.p0(i64 16, ptr nonnull %retval.i)
  %arrayidx3 = getelementptr inbounds %class.btVector3, ptr %supportVerticesOut, i64 %indvars.iv
  store <2 x float> %.fca.0.load.i, ptr %arrayidx3, align 4
  %ref.tmp.sroa.2.0.arrayidx3.sroa_idx = getelementptr inbounds i8, ptr %arrayidx3, i64 8
  store <2 x float> %.fca.1.load.i, ptr %ref.tmp.sroa.2.0.arrayidx3.sroa_idx, align 4
  %indvars.iv.next = add nuw nsw i64 %indvars.iv, 1
  %exitcond.not = icmp eq i64 %indvars.iv.next, %wide.trip.count
  br i1 %exitcond.not, label %for.end, label %for.body, !llvm.loop !5

for.end:                                          ; preds = %_ZNK11btConeShape16coneLocalSupportERK9btVector3.exit, %entry
  ret void
}